target datalayout = "e-m:e-p270:32:32-p271:32:32-p272:64:64-i64:64-i128:128-f80:128-n8:16:32:64-S128"
target triple = "x86_64-pc-linux-gnu"

%struct.ident_t = type { i32, i32, i32, i32, ptr }
%"struct.faiss::ClusteringParameters" = type { i32, i32, i8, i8, i8, i8, i8, i32, i32, i32, i64 }
%"class.std::vector" = type { %"struct.std::_Vector_base" }
%"struct.std::_Vector_base" = type { %"struct.std::_Vector_base<float, std::allocator<float>>::_Vector_impl" }
%"struct.std::_Vector_base<float, std::allocator<float>>::_Vector_impl" = type { %"struct.std::_Vector_base<float, std::allocator<float>>::_Vector_impl_data" }
%"struct.std::_Vector_base<float, std::allocator<float>>::_Vector_impl_data" = type { ptr, ptr, ptr }
%"struct.faiss::ProductQuantizer" = type { %"struct.faiss::Quantizer", i64, i64, i64, i64, i8, i32, %"struct.faiss::ClusteringParameters", ptr, %"class.std::vector", %"class.std::vector", %"class.std::vector", %"class.std::vector" }
%"struct.faiss::Quantizer" = type { ptr, i64, i64 }
%"class.__gnu_cxx::__normal_iterator" = type { ptr }

@1 = private unnamed_addr constant %struct.ident_t { i32 0, i32 514, i32 0, i32 22, ptr @0 }, align 8

; Function Attrs: mustprogress nounwind uwtable
define linkonce_odr noundef nonnull align 8 dereferenceable(8) ptr @_ZNK9__gnu_cxx17__normal_iteratorIPKfSt6vectorIfSaIfEEE4baseEv(ptr noundef nonnull align 8 dereferenceable(8) %0) #1 comdat align 2 {
  %2 = alloca ptr, align 8
  store ptr %0, ptr %2, align 8
  %3 = load ptr, ptr %2, align 8
  %4 = getelementptr inbounds %"class.__gnu_cxx::__normal_iterator", ptr %3, i32 0, i32 0
  ret ptr %4
}

; Function Attrs: mustprogress nounwind uwtable
define linkonce_odr void @_ZN9__gnu_cxx17__normal_iteratorIPKfSt6vectorIfSaIfEEEC2ERKS2_(ptr noundef nonnull align 8 dereferenceable(8) %0, ptr noundef nonnull align 8 dereferenceable(8) %1) unnamed_addr #1 comdat align 2 {
  %3 = alloca ptr, align 8
  %4 = alloca ptr, align 8
  store ptr %0, ptr %3, align 8
  store ptr %1, ptr %4, align 8
  %5 = load ptr, ptr %3, align 8
  %6 = getelementptr inbounds %"class.__gnu_cxx::__normal_iterator", ptr %5, i32 0, i32 0
  %7 = load ptr, ptr %4, align 8
  %8 = load ptr, ptr %7, align 8
  store ptr %8, ptr %6, align 8
  ret void
}

; Function Attrs: mustprogress nounwind uwtable
define linkonce_odr noundef ptr @_ZNKSt6vectorIfSaIfEE11_M_data_ptrIfEEPT_S4_(ptr noundef nonnull align 8 dereferenceable(24) %0, ptr noundef %1) #1 comdat align 2 {
  %3 = alloca ptr, align 8
  %4 = alloca ptr, align 8
  store ptr %0, ptr %3, align 8
  store ptr %1, ptr %4, align 8
  %5 = load ptr, ptr %4, align 8
  ret ptr %5
}

; Function Attrs: mustprogress nounwind uwtable
define linkonce_odr noundef nonnull align 4 dereferenceable(4) ptr @_ZNKSt6vectorIfSaIfEEixEm(ptr noundef nonnull align 8 dereferenceable(24) %0, i64 noundef %1) #1 comdat align 2 {
  %3 = alloca ptr, align 8
  %4 = alloca i64, align 8
  store ptr %0, ptr %3, align 8
  store i64 %1, ptr %4, align 8
  %5 = load ptr, ptr %3, align 8
  %6 = getelementptr inbounds %"struct.std::_Vector_base", ptr %5, i32 0, i32 0
  %7 = getelementptr inbounds %"struct.std::_Vector_base<float, std::allocator<float>>::_Vector_impl_data", ptr %6, i32 0, i32 0
  %8 = load ptr, ptr %7, align 8
  %9 = load i64, ptr %4, align 8
  %10 = getelementptr inbounds float, ptr %8, i64 %9
  ret ptr %10
}

; Function Attrs: mustprogress nounwind uwtable
define linkonce_odr noundef zeroext i1 @_ZN9__gnu_cxxeqIPKfSt6vectorIfSaIfEEEEbRKNS_17__normal_iteratorIT_T0_EESB_(ptr noundef nonnull align 8 dereferenceable(8) %0, ptr noundef nonnull align 8 dereferenceable(8) %1) #1 comdat {
  %3 = alloca ptr, align 8
  %4 = alloca ptr, align 8
  store ptr %0, ptr %3, align 8
  store ptr %1, ptr %4, align 8
  %5 = load ptr, ptr %3, align 8
  %6 = call noundef nonnull align 8 dereferenceable(8) ptr @_ZNK9__gnu_cxx17__normal_iteratorIPKfSt6vectorIfSaIfEEE4baseEv(ptr noundef nonnull align 8 dereferenceable(8) %5) #12
  %7 = load ptr, ptr %6, align 8
  %8 = load ptr, ptr %4, align 8
  %9 = call noundef nonnull align 8 dereferenceable(8) ptr @_ZNK9__gnu_cxx17__normal_iteratorIPKfSt6vectorIfSaIfEEE4baseEv(ptr noundef nonnull align 8 dereferenceable(8) %8) #12
  %10 = load ptr, ptr %9, align 8
  %11 = icmp eq ptr %7, %10
  ret i1 %11
}

; Function Attrs: mustprogress nounwind uwtable
define linkonce_odr ptr @_ZNKSt6vectorIfSaIfEE3endEv(ptr noundef nonnull align 8 dereferenceable(24) %0) #1 comdat align 2 {
  %2 = alloca %"class.__gnu_cxx::__normal_iterator", align 8
  %3 = alloca ptr, align 8
  store ptr %0, ptr %3, align 8
  %4 = load ptr, ptr %3, align 8
  %5 = getelementptr inbounds %"struct.std::_Vector_base", ptr %4, i32 0, i32 0
  %6 = getelementptr inbounds %"struct.std::_Vector_base<float, std::allocator<float>>::_Vector_impl_data", ptr %5, i32 0, i32 1
  call void @_ZN9__gnu_cxx17__normal_iteratorIPKfSt6vectorIfSaIfEEEC2ERKS2_(ptr noundef nonnull align 8 dereferenceable(8) %2, ptr noundef nonnull align 8 dereferenceable(8) %6) #12
  %7 = getelementptr inbounds %"class.__gnu_cxx::__normal_iterator", ptr %2, i32 0, i32 0
  %8 = load ptr, ptr %7, align 8
  ret ptr %8
}

; Function Attrs: mustprogress nounwind uwtable
define linkonce_odr ptr @_ZNKSt6vectorIfSaIfEE5beginEv(ptr noundef nonnull align 8 dereferenceable(24) %0) #1 comdat align 2 {
  %2 = alloca %"class.__gnu_cxx::__normal_iterator", align 8
  %3 = alloca ptr, align 8
  store ptr %0, ptr %3, align 8
  %4 = load ptr, ptr %3, align 8
  %5 = getelementptr inbounds %"struct.std::_Vector_base", ptr %4, i32 0, i32 0
  %6 = getelementptr inbounds %"struct.std::_Vector_base<float, std::allocator<float>>::_Vector_impl_data", ptr %5, i32 0, i32 0
  call void @_ZN9__gnu_cxx17__normal_iteratorIPKfSt6vectorIfSaIfEEEC2ERKS2_(ptr noundef nonnull align 8 dereferenceable(8) %2, ptr noundef nonnull align 8 dereferenceable(8) %6) #12
  %7 = getelementptr inbounds %"class.__gnu_cxx::__normal_iterator", ptr %2, i32 0, i32 0
  %8 = load ptr, ptr %7, align 8
  ret ptr %8
}

; Function Attrs: mustprogress nounwind uwtable
define linkonce_odr noundef ptr @_ZNKSt6vectorIfSaIfEE4dataEv(ptr noundef nonnull align 8 dereferenceable(24) %0) #1 comdat align 2 {
  %2 = alloca ptr, align 8
  store ptr %0, ptr %2, align 8
  %3 = load ptr, ptr %2, align 8
  %4 = getelementptr inbounds %"struct.std::_Vector_base", ptr %3, i32 0, i32 0
  %5 = getelementptr inbounds %"struct.std::_Vector_base<float, std::allocator<float>>::_Vector_impl_data", ptr %4, i32 0, i32 0
  %6 = load ptr, ptr %5, align 8
  %7 = call noundef ptr @_ZNKSt6vectorIfSaIfEE11_M_data_ptrIfEEPT_S4_(ptr noundef nonnull align 8 dereferenceable(24) %3, ptr noundef %6) #12
  ret ptr %7
}

; Function Attrs: mustprogress nounwind uwtable
define linkonce_odr noundef ptr @_ZNK5faiss16ProductQuantizer13get_centroidsEmm(ptr noundef nonnull align 8 dereferenceable(208) %0, i64 noundef %1, i64 noundef %2) #1 comdat align 2 {
  %4 = alloca ptr, align 8
  %5 = alloca i64, align 8
  %6 = alloca i64, align 8
  store ptr %0, ptr %4, align 8
  store i64 %1, ptr %5, align 8
  store i64 %2, ptr %6, align 8
  %7 = load ptr, ptr %4, align 8
  %8 = getelementptr inbounds %"struct.faiss::ProductQuantizer", ptr %7, i32 0, i32 9
  %9 = load i64, ptr %5, align 8
  %10 = getelementptr inbounds %"struct.faiss::ProductQuantizer", ptr %7, i32 0, i32 4
  %11 = load i64, ptr %10, align 8
  %12 = mul i64 %9, %11
  %13 = load i64, ptr %6, align 8
  %14 = add i64 %12, %13
  %15 = getelementptr inbounds %"struct.faiss::ProductQuantizer", ptr %7, i32 0, i32 3
  %16 = load i64, ptr %15, align 8
  %17 = mul i64 %14, %16
  %18 = call noundef nonnull align 4 dereferenceable(4) ptr @_ZNKSt6vectorIfSaIfEEixEm(ptr noundef nonnull align 8 dereferenceable(24) %8, i64 noundef %17) #12
  ret ptr %18
}

; Function Attrs: mustprogress nounwind uwtable
define linkonce_odr noundef zeroext i1 @_ZNKSt6vectorIfSaIfEE5emptyEv(ptr noundef nonnull align 8 dereferenceable(24) %0) #1 comdat align 2 {
  %2 = alloca ptr, align 8
  %3 = alloca %"class.__gnu_cxx::__normal_iterator", align 8
  %4 = alloca %"class.__gnu_cxx::__normal_iterator", align 8
  store ptr %0, ptr %2, align 8
  %5 = load ptr, ptr %2, align 8
  %6 = call ptr @_ZNKSt6vectorIfSaIfEE5beginEv(ptr noundef nonnull align 8 dereferenceable(24) %5) #12
  %7 = getelementptr inbounds %"class.__gnu_cxx::__normal_iterator", ptr %3, i32 0, i32 0
  store ptr %6, ptr %7, align 8
  %8 = call ptr @_ZNKSt6vectorIfSaIfEE3endEv(ptr noundef nonnull align 8 dereferenceable(24) %5) #12
  %9 = getelementptr inbounds %"class.__gnu_cxx::__normal_iterator", ptr %4, i32 0, i32 0
  store ptr %8, ptr %9, align 8
  %10 = call noundef zeroext i1 @_ZN9__gnu_cxxeqIPKfSt6vectorIfSaIfEEEEbRKNS_17__normal_iteratorIT_T0_EESB_(ptr noundef nonnull align 8 dereferenceable(8) %3, ptr noundef nonnull align 8 dereferenceable(8) %4) #12
  ret i1 %10
}

; Function Attrs: mustprogress uwtable
define void @_ZNK5faiss16ProductQuantizer22compute_distance_tableEPKfPf(ptr noundef nonnull align 8 dereferenceable(208) %0, ptr noundef %1, ptr noundef %2) #0 align 2 {
  %4 = alloca ptr, align 8
  %5 = alloca ptr, align 8
  %6 = alloca ptr, align 8
  %7 = alloca i64, align 8
  %8 = alloca i64, align 8
  store ptr %0, ptr %4, align 8
  store ptr %1, ptr %5, align 8
  store ptr %2, ptr %6, align 8
  %9 = load ptr, ptr %4, align 8
  %10 = getelementptr inbounds %"struct.faiss::ProductQuantizer", ptr %9, i32 0, i32 10
  %11 = call noundef zeroext i1 @_ZNKSt6vectorIfSaIfEE5emptyEv(ptr noundef nonnull align 8 dereferenceable(24) %10) #12
  br i1 %11, label %12, label %41

12:                                               ; preds = %3
  store i64 0, ptr %7, align 8
  br label %13

13:                                               ; preds = %37, %12
  %14 = load i64, ptr %7, align 8
  %15 = getelementptr inbounds %"struct.faiss::ProductQuantizer", ptr %9, i32 0, i32 1
  %16 = load i64, ptr %15, align 8
  %17 = icmp ult i64 %14, %16
  br i1 %17, label %18, label %40

18:                                               ; preds = %13
  %19 = load ptr, ptr %6, align 8
  %20 = load i64, ptr %7, align 8
  %21 = getelementptr inbounds %"struct.faiss::ProductQuantizer", ptr %9, i32 0, i32 4
  %22 = load i64, ptr %21, align 8
  %23 = mul i64 %20, %22
  %24 = getelementptr inbounds float, ptr %19, i64 %23
  %25 = load ptr, ptr %5, align 8
  %26 = load i64, ptr %7, align 8
  %27 = getelementptr inbounds %"struct.faiss::ProductQuantizer", ptr %9, i32 0, i32 3
  %28 = load i64, ptr %27, align 8
  %29 = mul i64 %26, %28
  %30 = getelementptr inbounds float, ptr %25, i64 %29
  %31 = load i64, ptr %7, align 8
  %32 = call noundef ptr @_ZNK5faiss16ProductQuantizer13get_centroidsEmm(ptr noundef nonnull align 8 dereferenceable(208) %9, i64 noundef %31, i64 noundef 0)
  %33 = getelementptr inbounds %"struct.faiss::ProductQuantizer", ptr %9, i32 0, i32 3
  %34 = load i64, ptr %33, align 8
  %35 = getelementptr inbounds %"struct.faiss::ProductQuantizer", ptr %9, i32 0, i32 4
  %36 = load i64, ptr %35, align 8
  call void @_ZN5faiss13fvec_L2sqr_nyEPfPKfS2_mm(ptr noundef %24, ptr noundef %30, ptr noundef %32, i64 noundef %34, i64 noundef %36)
  br label %37

37:                                               ; preds = %18
  %38 = load i64, ptr %7, align 8
  %39 = add i64 %38, 1
  store i64 %39, ptr %7, align 8
  br label %13, !llvm.loop !39

40:                                               ; preds = %13
  br label %87

41:                                               ; preds = %3
  store i64 0, ptr %8, align 8
  br label %42

42:                                               ; preds = %83, %41
  %43 = load i64, ptr %8, align 8
  %44 = getelementptr inbounds %"struct.faiss::ProductQuantizer", ptr %9, i32 0, i32 1
  %45 = load i64, ptr %44, align 8
  %46 = icmp ult i64 %43, %45
  br i1 %46, label %47, label %86

47:                                               ; preds = %42
  %48 = load ptr, ptr %6, align 8
  %49 = load i64, ptr %8, align 8
  %50 = getelementptr inbounds %"struct.faiss::ProductQuantizer", ptr %9, i32 0, i32 4
  %51 = load i64, ptr %50, align 8
  %52 = mul i64 %49, %51
  %53 = getelementptr inbounds float, ptr %48, i64 %52
  %54 = load ptr, ptr %5, align 8
  %55 = load i64, ptr %8, align 8
  %56 = getelementptr inbounds %"struct.faiss::ProductQuantizer", ptr %9, i32 0, i32 3
  %57 = load i64, ptr %56, align 8
  %58 = mul i64 %55, %57
  %59 = getelementptr inbounds float, ptr %54, i64 %58
  %60 = getelementptr inbounds %"struct.faiss::ProductQuantizer", ptr %9, i32 0, i32 10
  %61 = call noundef ptr @_ZNKSt6vectorIfSaIfEE4dataEv(ptr noundef nonnull align 8 dereferenceable(24) %60) #12
  %62 = load i64, ptr %8, align 8
  %63 = getelementptr inbounds %"struct.faiss::ProductQuantizer", ptr %9, i32 0, i32 4
  %64 = load i64, ptr %63, align 8
  %65 = mul i64 %62, %64
  %66 = getelementptr inbounds float, ptr %61, i64 %65
  %67 = getelementptr inbounds %"struct.faiss::ProductQuantizer", ptr %9, i32 0, i32 11
  %68 = call noundef ptr @_ZNKSt6vectorIfSaIfEE4dataEv(ptr noundef nonnull align 8 dereferenceable(24) %67) #12
  %69 = load i64, ptr %8, align 8
  %70 = getelementptr inbounds %"struct.faiss::ProductQuantizer", ptr %9, i32 0, i32 4
  %71 = load i64, ptr %70, align 8
  %72 = mul i64 %69, %71
  %73 = getelementptr inbounds float, ptr %68, i64 %72
  %74 = getelementptr inbounds %"struct.faiss::ProductQuantizer", ptr %9, i32 0, i32 3
  %75 = load i64, ptr %74, align 8
  %76 = getelementptr inbounds %"struct.faiss::ProductQuantizer", ptr %9, i32 0, i32 1
  %77 = load i64, ptr %76, align 8
  %78 = getelementptr inbounds %"struct.faiss::ProductQuantizer", ptr %9, i32 0, i32 4
  %79 = load i64, ptr %78, align 8
  %80 = mul i64 %77, %79
  %81 = getelementptr inbounds %"struct.faiss::ProductQuantizer", ptr %9, i32 0, i32 4
  %82 = load i64, ptr %81, align 8
  call void @_ZN5faiss24fvec_L2sqr_ny_transposedEPfPKfS2_S2_mmm(ptr noundef %53, ptr noundef %59, ptr noundef %66, ptr noundef %73, i64 noundef %75, i64 noundef %80, i64 noundef %82)
  br label %83

83:                                               ; preds = %47
  %84 = load i64, ptr %8, align 8
  %85 = add i64 %84, 1
  store i64 %85, ptr %8, align 8
  br label %42, !llvm.loop !40

86:                                               ; preds = %42
  br label %87

87:                                               ; preds = %86, %40
  ret void
}

; Function Attrs: norecurse nounwind uwtable
define internal void @_ZNK5faiss16ProductQuantizer23compute_distance_tablesEmPKfPf.omp_outlined(ptr noalias noundef %0, ptr noalias noundef %1, ptr noundef nonnull align 8 dereferenceable(8) %2, ptr noundef %3, ptr noundef nonnull align 8 dereferenceable(8) %4, ptr noundef nonnull align 8 dereferenceable(8) %5) #11 personality ptr @__gxx_personality_v0 {
  %7 = alloca ptr, align 8
  %8 = alloca ptr, align 8
  %9 = alloca ptr, align 8
  %10 = alloca ptr, align 8
  %11 = alloca ptr, align 8
  %12 = alloca ptr, align 8
  %13 = alloca i64, align 8
  %14 = alloca i64, align 8
  %15 = alloca i64, align 8
  %16 = alloca i64, align 8
  %17 = alloca i64, align 8
  %18 = alloca i64, align 8
  %19 = alloca i64, align 8
  %20 = alloca i32, align 4
  %21 = alloca i64, align 8
  store ptr %0, ptr %7, align 8
  store ptr %1, ptr %8, align 8
  store ptr %2, ptr %9, align 8
  store ptr %3, ptr %10, align 8
  store ptr %4, ptr %11, align 8
  store ptr %5, ptr %12, align 8
  %22 = load ptr, ptr %9, align 8
  %23 = load ptr, ptr %10, align 8
  %24 = load ptr, ptr %11, align 8
  %25 = load ptr, ptr %12, align 8
  %26 = load i64, ptr %22, align 8
  store i64 %26, ptr %14, align 8
  %27 = load i64, ptr %14, align 8
  %28 = sub i64 %27, 0
  %29 = udiv i64 %28, 1
  %30 = sub i64 %29, 1
  store i64 %30, ptr %15, align 8
  store i64 0, ptr %16, align 8
  %31 = load i64, ptr %14, align 8
  %32 = icmp ult i64 0, %31
  br i1 %32, label %33, label %80

33:                                               ; preds = %6
  store i64 0, ptr %17, align 8
  %34 = load i64, ptr %15, align 8
  store i64 %34, ptr %18, align 8
  store i64 1, ptr %19, align 8
  store i32 0, ptr %20, align 4
  %35 = load ptr, ptr %7, align 8
  %36 = load i32, ptr %35, align 4
  call void @__kmpc_for_static_init_8u(ptr @1, i32 %36, i32 34, ptr %20, ptr %17, ptr %18, ptr %19, i64 1, i64 1)
  %37 = load i64, ptr %18, align 8
  %38 = load i64, ptr %15, align 8
  %39 = icmp ugt i64 %37, %38
  br i1 %39, label %40, label %42

40:                                               ; preds = %33
  %41 = load i64, ptr %15, align 8
  br label %44

42:                                               ; preds = %33
  %43 = load i64, ptr %18, align 8
  br label %44

44:                                               ; preds = %42, %40
  %45 = phi i64 [ %41, %40 ], [ %43, %42 ]
  store i64 %45, ptr %18, align 8
  %46 = load i64, ptr %17, align 8
  store i64 %46, ptr %13, align 8
  br label %47

47:                                               ; preds = %73, %44
  %48 = load i64, ptr %13, align 8
  %49 = load i64, ptr %18, align 8
  %50 = add i64 %49, 1
  %51 = icmp ult i64 %48, %50
  br i1 %51, label %52, label %76

52:                                               ; preds = %47
  %53 = load i64, ptr %13, align 8
  %54 = mul i64 %53, 1
  %55 = add i64 0, %54
  store i64 %55, ptr %21, align 8
  %56 = load ptr, ptr %24, align 8
  %57 = load i64, ptr %21, align 8
  %58 = getelementptr inbounds %"struct.faiss::Quantizer", ptr %23, i32 0, i32 1
  %59 = load i64, ptr %58, align 8
  %60 = mul i64 %57, %59
  %61 = getelementptr inbounds float, ptr %56, i64 %60
  %62 = load ptr, ptr %25, align 8
  %63 = load i64, ptr %21, align 8
  %64 = getelementptr inbounds %"struct.faiss::ProductQuantizer", ptr %23, i32 0, i32 4
  %65 = load i64, ptr %64, align 8
  %66 = mul i64 %63, %65
  %67 = getelementptr inbounds %"struct.faiss::ProductQuantizer", ptr %23, i32 0, i32 1
  %68 = load i64, ptr %67, align 8
  %69 = mul i64 %66, %68
  %70 = getelementptr inbounds float, ptr %62, i64 %69
  invoke void @_ZNK5faiss16ProductQuantizer22compute_distance_tableEPKfPf(ptr noundef nonnull align 8 dereferenceable(208) %23, ptr noundef %61, ptr noundef %70)
          to label %71 unwind label %81

71:                                               ; preds = %52
  br label %72

72:                                               ; preds = %71
  br label %73

73:                                               ; preds = %72
  %74 = load i64, ptr %13, align 8
  %75 = add i64 %74, 1
  store i64 %75, ptr %13, align 8
  br label %47

76:                                               ; preds = %47
  br label %77

77:                                               ; preds = %76
  %78 = load ptr, ptr %7, align 8
  %79 = load i32, ptr %78, align 4
  call void @__kmpc_for_static_fini(ptr @1, i32 %79)
  br label %80

80:                                               ; preds = %77, %6
  ret void

81:                                               ; preds = %52
  %82 = landingpad { ptr, i32 }
          catch ptr null
  %83 = extractvalue { ptr, i32 } %82, 0
  call void @__clang_call_terminate(ptr %83) #16
  unreachable
}