; Function Attrs: norecurse nounwind uwtable
define internal void @_ZNK5faiss16ProductQuantizer23compute_distance_tablesEmPKfPf.omp_outlined(ptr noalias nocapture noundef readonly %0, ptr noalias nocapture readnone %1, ptr nocapture noundef nonnull readonly align 8 dereferenceable(8) %2, ptr nocapture noundef readonly %3, ptr nocapture noundef nonnull readonly align 8 dereferenceable(8) %4, ptr nocapture noundef nonnull readonly align 8 dereferenceable(8) %5) #15 personality ptr @__gxx_personality_v0 {
  %7 = alloca i64, align 8
  %8 = alloca i64, align 8
  %9 = alloca i64, align 8
  %10 = alloca i32, align 4
  %11 = load i64, ptr %2, align 8
  %.not = icmp eq i64 %11, 0
  br i1 %.not, label %72, label %12

12:                                               ; preds = %6
  %13 = add i64 %11, -1
  store i64 0, ptr %7, align 8
  store i64 %13, ptr %8, align 8
  store i64 1, ptr %9, align 8
  store i32 0, ptr %10, align 4
  %14 = load i32, ptr %0, align 4
  call void @__kmpc_for_static_init_8u(ptr nonnull @1, i32 %14, i32 34, ptr nonnull %10, ptr nonnull %7, ptr nonnull %8, ptr nonnull %9, i64 1, i64 1)
  %15 = load i64, ptr %8, align 8
  %16 = call i64 @llvm.umin.i64(i64 %15, i64 %13)
  store i64 %16, ptr %8, align 8
  %17 = load i64, ptr %7, align 8
  %.not21 = icmp ugt i64 %17, %16
  br i1 %.not21, label %._crit_edge, label %.lr.ph

.lr.ph:                                           ; preds = %12
  %18 = getelementptr inbounds i8, ptr %3, i64 8
  %19 = getelementptr inbounds i8, ptr %3, i64 48
  %20 = getelementptr inbounds i8, ptr %3, i64 24
  %21 = getelementptr inbounds i8, ptr %3, i64 136
  %22 = getelementptr inbounds i8, ptr %3, i64 144
  %23 = getelementptr inbounds i8, ptr %3, i64 40
  %24 = getelementptr inbounds i8, ptr %3, i64 160
  %25 = getelementptr inbounds i8, ptr %3, i64 112
  %.pre = load i64, ptr %20, align 8
  br label %26

26:                                               ; preds = %.lr.ph, %_ZNK5faiss16ProductQuantizer22compute_distance_tableEPKfPf.exit
  %27 = phi i64 [ %.pre, %.lr.ph ], [ %67, %_ZNK5faiss16ProductQuantizer22compute_distance_tableEPKfPf.exit ]
  %.017 = phi i64 [ %17, %.lr.ph ], [ %68, %_ZNK5faiss16ProductQuantizer22compute_distance_tableEPKfPf.exit ]
  %28 = load ptr, ptr %4, align 8
  %29 = load i64, ptr %18, align 8
  %30 = mul i64 %29, %.017
  %31 = getelementptr inbounds float, ptr %28, i64 %30
  %32 = load ptr, ptr %5, align 8
  %33 = load i64, ptr %19, align 8
  %34 = mul i64 %33, %.017
  %35 = mul i64 %34, %27
  %36 = getelementptr inbounds float, ptr %32, i64 %35
  %37 = load ptr, ptr %21, align 8
  %38 = load ptr, ptr %22, align 8
  %39 = icmp eq ptr %37, %38
  %.not21.i = icmp eq i64 %27, 0
  br i1 %39, label %.preheader.i, label %.preheader16.i

.preheader16.i:                                   ; preds = %26
  br i1 %.not21.i, label %_ZNK5faiss16ProductQuantizer22compute_distance_tableEPKfPf.exit, label %.lr.ph.i

.preheader.i:                                     ; preds = %26
  br i1 %.not21.i, label %_ZNK5faiss16ProductQuantizer22compute_distance_tableEPKfPf.exit, label %.lr.ph20.i

.lr.ph20.i:                                       ; preds = %.preheader.i, %.noexc
  %.01519.i = phi i64 [ %49, %.noexc ], [ 0, %.preheader.i ]
  %40 = load i64, ptr %19, align 8
  %41 = mul i64 %40, %.01519.i
  %42 = getelementptr inbounds float, ptr %36, i64 %41
  %43 = load i64, ptr %23, align 8
  %44 = mul i64 %43, %.01519.i
  %45 = getelementptr inbounds float, ptr %31, i64 %44
  %46 = mul i64 %41, %43
  %47 = load ptr, ptr %25, align 8
  %48 = getelementptr inbounds float, ptr %47, i64 %46
  invoke void @_ZN5faiss13fvec_L2sqr_nyEPfPKfS2_mm(ptr noundef %42, ptr noundef %45, ptr noundef %48, i64 noundef %43, i64 noundef %40)
          to label %.noexc unwind label %.loopexit

.noexc:                                           ; preds = %.lr.ph20.i
  %49 = add nuw i64 %.01519.i, 1
  %50 = load i64, ptr %20, align 8
  %51 = icmp ult i64 %49, %50
  br i1 %51, label %.lr.ph20.i, label %_ZNK5faiss16ProductQuantizer22compute_distance_tableEPKfPf.exit, !llvm.loop !42

.lr.ph.i:                                         ; preds = %.preheader16.i, %.noexc15
  %52 = phi i64 [ %65, %.noexc15 ], [ %27, %.preheader16.i ]
  %.018.i = phi i64 [ %64, %.noexc15 ], [ 0, %.preheader16.i ]
  %53 = load i64, ptr %19, align 8
  %54 = mul i64 %53, %.018.i
  %55 = getelementptr inbounds float, ptr %36, i64 %54
  %56 = load i64, ptr %23, align 8
  %57 = mul i64 %56, %.018.i
  %58 = getelementptr inbounds float, ptr %31, i64 %57
  %59 = load ptr, ptr %21, align 8
  %60 = getelementptr inbounds float, ptr %59, i64 %54
  %61 = load ptr, ptr %24, align 8
  %62 = getelementptr inbounds float, ptr %61, i64 %54
  %63 = mul i64 %53, %52
  invoke void @_ZN5faiss24fvec_L2sqr_ny_transposedEPfPKfS2_S2_mmm(ptr noundef %55, ptr noundef %58, ptr noundef %60, ptr noundef %62, i64 noundef %56, i64 noundef %63, i64 noundef %53)
          to label %.noexc15 unwind label %.loopexit.split-lp

.noexc15:                                         ; preds = %.lr.ph.i
  %64 = add nuw i64 %.018.i, 1
  %65 = load i64, ptr %20, align 8
  %66 = icmp ult i64 %64, %65
  br i1 %66, label %.lr.ph.i, label %_ZNK5faiss16ProductQuantizer22compute_distance_tableEPKfPf.exit, !llvm.loop !43

_ZNK5faiss16ProductQuantizer22compute_distance_tableEPKfPf.exit: ; preds = %.noexc15, %.noexc, %.preheader.i, %.preheader16.i
  %67 = phi i64 [ 0, %.preheader.i ], [ 0, %.preheader16.i ], [ %50, %.noexc ], [ %65, %.noexc15 ]
  %68 = add nuw i64 %.017, 1
  %69 = load i64, ptr %8, align 8
  %70 = add i64 %69, 1
  %71 = icmp ult i64 %68, %70
  br i1 %71, label %26, label %._crit_edge

._crit_edge:                                      ; preds = %_ZNK5faiss16ProductQuantizer22compute_distance_tableEPKfPf.exit, %12
  call void @__kmpc_for_static_fini(ptr nonnull @1, i32 %14)
  br label %72

72:                                               ; preds = %._crit_edge, %6
  ret void

.loopexit:                                        ; preds = %.lr.ph20.i
  %lpad.loopexit = landingpad { ptr, i32 }
          catch ptr null
  br label %73

.loopexit.split-lp:                               ; preds = %.lr.ph.i
  %lpad.loopexit.split-lp = landingpad { ptr, i32 }
          catch ptr null
  br label %73

73:                                               ; preds = %.loopexit.split-lp, %.loopexit
  %lpad.phi = phi { ptr, i32 } [ %lpad.loopexit, %.loopexit ], [ %lpad.loopexit.split-lp, %.loopexit.split-lp ]
  %74 = extractvalue { ptr, i32 } %lpad.phi, 0
  call void @__clang_call_terminate(ptr %74) #26
  unreachable
}